target datalayout = "e-m:e-p270:32:32-p271:32:32-p272:64:64-i64:64-i128:128-f80:128-n8:16:32:64-S128"
target triple = "x86_64-pc-linux-gnu"

%struct.WFILE = type { ptr, i32, i32, ptr, ptr, ptr, ptr, ptr, i32, i32 }

; Function Attrs: nounwind uwtable
define internal void @w_pstring(ptr noundef %0, i64 noundef %1, ptr noundef %2) #0 {
  %4 = alloca ptr, align 8
  %5 = alloca i64, align 8
  %6 = alloca ptr, align 8
  store ptr %0, ptr %4, align 8, !tbaa !23
  store i64 %1, ptr %5, align 8, !tbaa !4
  store ptr %2, ptr %6, align 8, !tbaa !23
  br label %7

7:                                                ; preds = %3
  %8 = load i64, ptr %5, align 8, !tbaa !4
  %9 = icmp sgt i64 %8, 2147483647
  br i1 %9, label %10, label %17

10:                                               ; preds = %7
  %11 = load ptr, ptr %6, align 8, !tbaa !23
  %12 = getelementptr inbounds nuw %struct.WFILE, ptr %11, i32 0, i32 2
  %13 = load i32, ptr %12, align 4, !tbaa !28
  %14 = add i32 %13, -1
  store i32 %14, ptr %12, align 4, !tbaa !28
  %15 = load ptr, ptr %6, align 8, !tbaa !23
  %16 = getelementptr inbounds nuw %struct.WFILE, ptr %15, i32 0, i32 1
  store i32 1, ptr %16, align 8, !tbaa !21
  br label %24

17:                                               ; preds = %7
  %18 = load i64, ptr %5, align 8, !tbaa !4
  %19 = load ptr, ptr %6, align 8, !tbaa !23
  call void @w_long(i64 noundef %18, ptr noundef %19)
  br label %20

20:                                               ; preds = %17
  %21 = load ptr, ptr %4, align 8, !tbaa !23
  %22 = load i64, ptr %5, align 8, !tbaa !4
  %23 = load ptr, ptr %6, align 8, !tbaa !23
  call void @w_string(ptr noundef %21, i64 noundef %22, ptr noundef %23)
  br label %24

24:                                               ; preds = %20, %10
  ret void
}