; Function Attrs: nounwind uwtable
define internal fastcc void @w_pstring(ptr noundef captures(none) %0, i64 noundef %1, ptr noundef nonnull %2) unnamed_addr #0 {
  %4 = icmp sgt i64 %1, 2147483647
  br i1 %4, label %5, label %10

5:                                                ; preds = %3
  %6 = getelementptr inbounds nuw i8, ptr %2, i64 12
  %7 = load i32, ptr %6, align 4, !tbaa !28
  %8 = add i32 %7, -1
  store i32 %8, ptr %6, align 4, !tbaa !28
  %9 = getelementptr inbounds nuw i8, ptr %2, i64 8
  store i32 1, ptr %9, align 8, !tbaa !24
  br label %11

10:                                               ; preds = %3
  tail call fastcc void @w_long(i64 noundef %1, ptr noundef %2)
  tail call fastcc void @w_string(ptr noundef %0, i64 noundef %1, ptr noundef %2)
  br label %11

11:                                               ; preds = %10, %5
  ret void
}